target datalayout = "e-m:e-p270:32:32-p271:32:32-p272:64:64-i64:64-i128:128-f80:128-n8:16:32:64-S128"
target triple = "x86_64-pc-linux-gnu"

%struct._packet_info = type { ptr, ptr, i32, i32, %struct.nstime_t, %struct.nstime_t, %struct.nstime_t, i8, ptr, ptr, ptr, ptr, %struct._address, %struct._address, %struct._address, %struct._address, %struct._address, %struct._address, i32, ptr, i8, [3 x i8], %struct.anon, i32, i32, i32, i32, ptr, i8, ptr, ptr, i16, i16, i32, i32, i16, i32, i32, ptr, ptr, ptr, i8, i8, i16, i16, i16, i32, i16, i16, ptr, ptr, ptr, ptr, ptr, i32, i32 }
%struct.nstime_t = type { i64, i32 }
%struct._address = type { i32, i32, ptr, ptr }
%struct.anon = type { i8, [3 x i8] }
%union.anon = type { i32 }

@hf_igrp_network = internal global i32 0, align 4
@hf_igrp_delay = internal global i32 0, align 4
@hf_igrp_bandwidth = internal global i32 0, align 4
@hf_igrp_mtu = internal global i32 0, align 4
@hf_igrp_reliability = internal global i32 0, align 4
@hf_igrp_load = internal global i32 0, align 4
@hf_igrp_hop_count = internal global i32 0, align 4
@ett_igrp_net = internal global i32 0, align 4
@.str.44 = private unnamed_addr constant [21 x i8] c"Entry for network %s\00", align 1

; Function Attrs: inlinehint nounwind null_pointer_is_valid sspstrong uwtable
define internal void @set_address(ptr noundef %0, i32 noundef %1, i32 noundef %2, ptr noundef %3) #3 {
  %5 = alloca ptr, align 8
  %6 = alloca i32, align 4
  %7 = alloca i32, align 4
  %8 = alloca ptr, align 8
  store ptr %0, ptr %5, align 8
  store i32 %1, ptr %6, align 4
  store i32 %2, ptr %7, align 4
  store ptr %3, ptr %8, align 8
  %9 = load i32, ptr %7, align 4
  %10 = icmp eq i32 %9, 0
  br i1 %10, label %11, label %14

11:                                               ; preds = %4
  br label %12

12:                                               ; preds = %11
  br label %13

13:                                               ; preds = %12
  br label %19

14:                                               ; preds = %4
  br label %15

15:                                               ; preds = %14
  br label %16

16:                                               ; preds = %15
  br label %17

17:                                               ; preds = %16
  br label %18

18:                                               ; preds = %17
  br label %19

19:                                               ; preds = %18, %13
  %20 = load i32, ptr %6, align 4
  %21 = load ptr, ptr %5, align 8
  %22 = getelementptr inbounds nuw %struct._address, ptr %21, i32 0, i32 0
  store i32 %20, ptr %22, align 8
  %23 = load i32, ptr %7, align 4
  %24 = load ptr, ptr %5, align 8
  %25 = getelementptr inbounds nuw %struct._address, ptr %24, i32 0, i32 1
  store i32 %23, ptr %25, align 4
  %26 = load ptr, ptr %8, align 8
  %27 = load ptr, ptr %5, align 8
  %28 = getelementptr inbounds nuw %struct._address, ptr %27, i32 0, i32 2
  store ptr %26, ptr %28, align 8
  %29 = load ptr, ptr %5, align 8
  %30 = getelementptr inbounds nuw %struct._address, ptr %29, i32 0, i32 3
  store ptr null, ptr %30, align 8
  ret void
}

; Function Attrs: null_pointer_is_valid sspstrong uwtable
define internal void @dissect_vektor_igrp(ptr noundef %0, ptr noundef %1, ptr noundef %2, i8 noundef zeroext %3) #0 {
  %5 = alloca ptr, align 8
  %6 = alloca ptr, align 8
  %7 = alloca ptr, align 8
  %8 = alloca i8, align 1
  %9 = alloca %union.anon, align 4
  %10 = alloca %struct._address, align 8
  store ptr %0, ptr %5, align 8
  store ptr %1, ptr %6, align 8
  store ptr %2, ptr %7, align 8
  store i8 %3, ptr %8, align 1
  call void @llvm.lifetime.start.p0(i64 4, ptr %9) #4
  call void @llvm.lifetime.start.p0(i64 24, ptr %10) #4
  %11 = load i8, ptr %8, align 1
  %12 = zext i8 %11 to i32
  %13 = icmp ne i32 %12, 0
  br i1 %13, label %14, label %26

14:                                               ; preds = %4
  %15 = load i8, ptr %8, align 1
  %16 = getelementptr [4 x i8], ptr %9, i64 0, i64 0
  store i8 %15, ptr %16, align 4
  %17 = load ptr, ptr %6, align 8
  %18 = call zeroext i8 @tvb_get_uint8(ptr noundef %17, i32 noundef 0)
  %19 = getelementptr [4 x i8], ptr %9, i64 0, i64 1
  store i8 %18, ptr %19, align 1
  %20 = load ptr, ptr %6, align 8
  %21 = call zeroext i8 @tvb_get_uint8(ptr noundef %20, i32 noundef 1)
  %22 = getelementptr [4 x i8], ptr %9, i64 0, i64 2
  store i8 %21, ptr %22, align 2
  %23 = load ptr, ptr %6, align 8
  %24 = call zeroext i8 @tvb_get_uint8(ptr noundef %23, i32 noundef 2)
  %25 = getelementptr [4 x i8], ptr %9, i64 0, i64 3
  store i8 %24, ptr %25, align 1
  br label %37

26:                                               ; preds = %4
  %27 = load ptr, ptr %6, align 8
  %28 = call zeroext i8 @tvb_get_uint8(ptr noundef %27, i32 noundef 0)
  %29 = getelementptr [4 x i8], ptr %9, i64 0, i64 0
  store i8 %28, ptr %29, align 4
  %30 = load ptr, ptr %6, align 8
  %31 = call zeroext i8 @tvb_get_uint8(ptr noundef %30, i32 noundef 1)
  %32 = getelementptr [4 x i8], ptr %9, i64 0, i64 1
  store i8 %31, ptr %32, align 1
  %33 = load ptr, ptr %6, align 8
  %34 = call zeroext i8 @tvb_get_uint8(ptr noundef %33, i32 noundef 2)
  %35 = getelementptr [4 x i8], ptr %9, i64 0, i64 2
  store i8 %34, ptr %35, align 2
  %36 = getelementptr [4 x i8], ptr %9, i64 0, i64 3
  store i8 0, ptr %36, align 1
  br label %37

37:                                               ; preds = %26, %14
  call void @set_address(ptr noundef %10, i32 noundef 2, i32 noundef 4, ptr noundef %9)
  %38 = load ptr, ptr %7, align 8
  %39 = load ptr, ptr %6, align 8
  %40 = load i32, ptr @ett_igrp_net, align 4
  %41 = load ptr, ptr %5, align 8
  %42 = getelementptr inbounds nuw %struct._packet_info, ptr %41, i32 0, i32 51
  %43 = load ptr, ptr %42, align 8
  %44 = call ptr @address_to_str(ptr noundef %43, ptr noundef %10)
  %45 = call ptr (ptr, ptr, i32, i32, i32, ptr, ptr, ...) @proto_tree_add_subtree_format(ptr noundef %38, ptr noundef %39, i32 noundef 0, i32 noundef 14, i32 noundef %40, ptr noundef null, ptr noundef @.str.44, ptr noundef %44)
  store ptr %45, ptr %7, align 8
  %46 = load ptr, ptr %7, align 8
  %47 = load i32, ptr @hf_igrp_network, align 4
  %48 = load ptr, ptr %6, align 8
  %49 = load i32, ptr %9, align 4
  %50 = call ptr @proto_tree_add_ipv4(ptr noundef %46, i32 noundef %47, ptr noundef %48, i32 noundef 0, i32 noundef 3, i32 noundef %49)
  %51 = load ptr, ptr %7, align 8
  %52 = load i32, ptr @hf_igrp_delay, align 4
  %53 = load ptr, ptr %6, align 8
  %54 = call ptr @proto_tree_add_item(ptr noundef %51, i32 noundef %52, ptr noundef %53, i32 noundef 3, i32 noundef 3, i32 noundef 0)
  %55 = load ptr, ptr %7, align 8
  %56 = load i32, ptr @hf_igrp_bandwidth, align 4
  %57 = load ptr, ptr %6, align 8
  %58 = call ptr @proto_tree_add_item(ptr noundef %55, i32 noundef %56, ptr noundef %57, i32 noundef 6, i32 noundef 3, i32 noundef 0)
  %59 = load ptr, ptr %7, align 8
  %60 = load i32, ptr @hf_igrp_mtu, align 4
  %61 = load ptr, ptr %6, align 8
  %62 = call ptr @proto_tree_add_item(ptr noundef %59, i32 noundef %60, ptr noundef %61, i32 noundef 9, i32 noundef 2, i32 noundef 0)
  %63 = load ptr, ptr %7, align 8
  %64 = load i32, ptr @hf_igrp_reliability, align 4
  %65 = load ptr, ptr %6, align 8
  %66 = call ptr @proto_tree_add_item(ptr noundef %63, i32 noundef %64, ptr noundef %65, i32 noundef 11, i32 noundef 1, i32 noundef 0)
  %67 = load ptr, ptr %7, align 8
  %68 = load i32, ptr @hf_igrp_load, align 4
  %69 = load ptr, ptr %6, align 8
  %70 = call ptr @proto_tree_add_item(ptr noundef %67, i32 noundef %68, ptr noundef %69, i32 noundef 12, i32 noundef 1, i32 noundef 0)
  %71 = load ptr, ptr %7, align 8
  %72 = load i32, ptr @hf_igrp_hop_count, align 4
  %73 = load ptr, ptr %6, align 8
  %74 = call ptr @proto_tree_add_item(ptr noundef %71, i32 noundef %72, ptr noundef %73, i32 noundef 13, i32 noundef 1, i32 noundef 0)
  call void @llvm.lifetime.end.p0(i64 24, ptr %10) #4
  call void @llvm.lifetime.end.p0(i64 4, ptr %9) #4
  ret void
}