; Function Attrs: null_pointer_is_valid sspstrong uwtable
define internal fastcc void @dissect_vektor_igrp(ptr noundef readonly captures(none) %0, ptr noundef %1, ptr noundef %2, i8 noundef zeroext %3) unnamed_addr #0 {
  %5 = alloca %union.anon, align 4
  %6 = alloca %struct._address, align 8
  call void @llvm.lifetime.start.p0(i64 4, ptr nonnull %5) #3
  call void @llvm.lifetime.start.p0(i64 24, ptr nonnull %6) #3
  %.not = icmp eq i8 %3, 0
  br i1 %.not, label %13, label %7

7:                                                ; preds = %4
  store i8 %3, ptr %5, align 4
  %8 = tail call zeroext i8 @tvb_get_uint8(ptr noundef %1, i32 noundef 0)
  %9 = getelementptr inbounds nuw i8, ptr %5, i64 1
  store i8 %8, ptr %9, align 1
  %10 = tail call zeroext i8 @tvb_get_uint8(ptr noundef %1, i32 noundef 1)
  %11 = getelementptr inbounds nuw i8, ptr %5, i64 2
  store i8 %10, ptr %11, align 2
  %12 = tail call zeroext i8 @tvb_get_uint8(ptr noundef %1, i32 noundef 2)
  br label %19

13:                                               ; preds = %4
  %14 = tail call zeroext i8 @tvb_get_uint8(ptr noundef %1, i32 noundef 0)
  store i8 %14, ptr %5, align 4
  %15 = tail call zeroext i8 @tvb_get_uint8(ptr noundef %1, i32 noundef 1)
  %16 = getelementptr inbounds nuw i8, ptr %5, i64 1
  store i8 %15, ptr %16, align 1
  %17 = tail call zeroext i8 @tvb_get_uint8(ptr noundef %1, i32 noundef 2)
  %18 = getelementptr inbounds nuw i8, ptr %5, i64 2
  store i8 %17, ptr %18, align 2
  br label %19

19:                                               ; preds = %13, %7
  %.sink = phi i8 [ 0, %13 ], [ %12, %7 ]
  %20 = getelementptr inbounds nuw i8, ptr %5, i64 3
  store i8 %.sink, ptr %20, align 1
  store i32 2, ptr %6, align 8
  %21 = getelementptr inbounds nuw i8, ptr %6, i64 4
  store i32 4, ptr %21, align 4
  %22 = getelementptr inbounds nuw i8, ptr %6, i64 8
  store ptr %5, ptr %22, align 8
  %23 = getelementptr inbounds nuw i8, ptr %6, i64 16
  store ptr null, ptr %23, align 8
  %24 = load i32, ptr @ett_igrp_net, align 4
  %25 = getelementptr inbounds nuw i8, ptr %0, i64 408
  %26 = load ptr, ptr %25, align 8
  %27 = call ptr @address_to_str(ptr noundef %26, ptr noundef nonnull %6)
  %28 = call ptr (ptr, ptr, i32, i32, i32, ptr, ptr, ...) @proto_tree_add_subtree_format(ptr noundef %2, ptr noundef %1, i32 noundef 0, i32 noundef 14, i32 noundef %24, ptr noundef null, ptr noundef nonnull @.str.44, ptr noundef %27)
  %29 = load i32, ptr @hf_igrp_network, align 4
  %30 = load i32, ptr %5, align 4
  %31 = call ptr @proto_tree_add_ipv4(ptr noundef %28, i32 noundef %29, ptr noundef %1, i32 noundef 0, i32 noundef 3, i32 noundef %30)
  %32 = load i32, ptr @hf_igrp_delay, align 4
  %33 = call ptr @proto_tree_add_item(ptr noundef %28, i32 noundef %32, ptr noundef %1, i32 noundef 3, i32 noundef 3, i32 noundef 0)
  %34 = load i32, ptr @hf_igrp_bandwidth, align 4
  %35 = call ptr @proto_tree_add_item(ptr noundef %28, i32 noundef %34, ptr noundef %1, i32 noundef 6, i32 noundef 3, i32 noundef 0)
  %36 = load i32, ptr @hf_igrp_mtu, align 4
  %37 = call ptr @proto_tree_add_item(ptr noundef %28, i32 noundef %36, ptr noundef %1, i32 noundef 9, i32 noundef 2, i32 noundef 0)
  %38 = load i32, ptr @hf_igrp_reliability, align 4
  %39 = call ptr @proto_tree_add_item(ptr noundef %28, i32 noundef %38, ptr noundef %1, i32 noundef 11, i32 noundef 1, i32 noundef 0)
  %40 = load i32, ptr @hf_igrp_load, align 4
  %41 = call ptr @proto_tree_add_item(ptr noundef %28, i32 noundef %40, ptr noundef %1, i32 noundef 12, i32 noundef 1, i32 noundef 0)
  %42 = load i32, ptr @hf_igrp_hop_count, align 4
  %43 = call ptr @proto_tree_add_item(ptr noundef %28, i32 noundef %42, ptr noundef %1, i32 noundef 13, i32 noundef 1, i32 noundef 0)
  call void @llvm.lifetime.end.p0(i64 24, ptr nonnull %6) #3
  call void @llvm.lifetime.end.p0(i64 4, ptr nonnull %5) #3
  ret void
}